; Function Attrs: nofree norecurse nosync nounwind memory(read, inaccessiblemem: write) uwtable
define dso_local i32 @ExecEvalStepOp(ptr noundef readonly captures(none) %0, ptr noundef readonly captures(none) %1) local_unnamed_addr #4 {
  %3 = getelementptr inbounds nuw i8, ptr %0, i64 4
  %4 = load i8, ptr %3, align 4
  %5 = and i8 %4, 64
  %.not = icmp eq i8 %5, 0
  %6 = load i64, ptr %1, align 8
  br i1 %.not, label %23, label %7

7:                                                ; preds = %2
  %8 = inttoptr i64 %6 to ptr
  br label %.lr.ph.i

.lr.ph.i:                                         ; preds = %18, %7
  %.01621.i = phi i64 [ %.1.i, %18 ], [ 0, %7 ]
  %.01720.i = phi i64 [ %.118.i, %18 ], [ 116, %7 ]
  %9 = add i64 %.01720.i, %.01621.i
  %10 = lshr i64 %9, 1
  %11 = shl i64 %10, 4
  %12 = getelementptr inbounds nuw i8, ptr @reverse_dispatch_table, i64 %11
  %13 = load ptr, ptr %12, align 16
  %14 = icmp ugt ptr %13, %8
  br i1 %14, label %18, label %15

15:                                               ; preds = %.lr.ph.i
  %.not5 = icmp ult ptr %13, %8
  br i1 %.not5, label %16, label %bsearch.exit

16:                                               ; preds = %15
  %17 = add nuw i64 %10, 1
  br label %18

18:                                               ; preds = %16, %.lr.ph.i
  %.118.i = phi i64 [ %.01720.i, %16 ], [ %10, %.lr.ph.i ]
  %.1.i = phi i64 [ %17, %16 ], [ %.01621.i, %.lr.ph.i ]
  %19 = icmp ult i64 %.1.i, %.118.i
  tail call void @llvm.assume(i1 %19)
  br label %.lr.ph.i

bsearch.exit:                                     ; preds = %15
  %20 = getelementptr inbounds nuw i8, ptr @reverse_dispatch_table, i64 %11
  %21 = getelementptr inbounds nuw i8, ptr %20, i64 8
  %22 = load i32, ptr %21, align 8
  br label %25

23:                                               ; preds = %2
  %24 = trunc i64 %6 to i32
  br label %25

25:                                               ; preds = %23, %bsearch.exit
  %.0 = phi i32 [ %22, %bsearch.exit ], [ %24, %23 ]
  ret i32 %.0
}